target datalayout = "e-m:e-p270:32:32-p271:32:32-p272:64:64-i64:64-i128:128-f80:128-n8:16:32:64-S128"
target triple = "x86_64-pc-linux-gnu"

%struct.expert_field = type { i32, i32 }
%struct._packet_info = type { ptr, ptr, i32, i32, %struct.nstime_t, %struct.nstime_t, %struct.nstime_t, i8, ptr, ptr, ptr, ptr, %struct._address, %struct._address, %struct._address, %struct._address, %struct._address, %struct._address, i32, ptr, i8, [3 x i8], %struct.anon, i32, i32, i32, i32, ptr, i8, ptr, ptr, i16, i16, i32, i32, i16, i32, i32, ptr, ptr, ptr, i8, i8, i16, i16, i16, i32, i16, i16, ptr, ptr, ptr, ptr, ptr, i32, i32 }
%struct.nstime_t = type { i64, i32 }
%struct._address = type { i32, i32, ptr, ptr }
%struct.anon = type { i8, [3 x i8] }

@ei_bssgp_missing_mandatory_element = internal global %struct.expert_field zeroinitializer, align 4
@.str.6 = private unnamed_addr constant [71 x i8] c"Missing Mandatory element (0x%02x) %s%s, rest of dissection is suspect\00", align 1
@.str.7 = private unnamed_addr constant [1 x i8] zeroinitializer, align 1
@ei_bssgp_extraneous_data = internal global %struct.expert_field zeroinitializer, align 4
@.str.753 = private unnamed_addr constant [10 x i8] c" - Source\00", align 1
@.str.754 = private unnamed_addr constant [10 x i8] c" - Target\00", align 1

; Function Attrs: null_pointer_is_valid sspstrong uwtable
define internal void @bssgp_ps_ho_cancel(ptr noundef %0, ptr noundef %1, ptr noundef %2, i32 noundef %3, i32 noundef %4) #1 {
  %6 = alloca ptr, align 8
  %7 = alloca ptr, align 8
  %8 = alloca ptr, align 8
  %9 = alloca i32, align 4
  %10 = alloca i32, align 4
  %11 = alloca i32, align 4
  %12 = alloca i32, align 4
  %13 = alloca i32, align 4
  %14 = alloca i32, align 4
  store ptr %0, ptr %6, align 8
  store ptr %1, ptr %7, align 8
  store ptr %2, ptr %8, align 8
  store i32 %3, ptr %9, align 4
  store i32 %4, ptr %10, align 4
  call void @llvm.lifetime.start.p0(i64 4, ptr %11) #4
  call void @llvm.lifetime.start.p0(i64 4, ptr %12) #4
  call void @llvm.lifetime.start.p0(i64 4, ptr %13) #4
  %15 = load i32, ptr %9, align 4
  store i32 %15, ptr %11, align 4
  %16 = load i32, ptr %10, align 4
  store i32 %16, ptr %13, align 4
  %17 = load ptr, ptr %8, align 8
  %18 = getelementptr inbounds nuw %struct._packet_info, ptr %17, i32 0, i32 46
  store i32 0, ptr %18, align 8
  %19 = load i32, ptr %13, align 4
  %20 = icmp sgt i32 %19, 0
  br i1 %20, label %21, label %37

21:                                               ; preds = %5
  %22 = load ptr, ptr %6, align 8
  %23 = load ptr, ptr %7, align 8
  %24 = load ptr, ptr %8, align 8
  %25 = load i32, ptr %11, align 4
  %26 = load i32, ptr %13, align 4
  %27 = call zeroext i16 @elem_telv(ptr noundef %22, ptr noundef %23, ptr noundef %24, i8 noundef zeroext 31, i32 noundef 3, i32 noundef 68, i32 noundef %25, i32 noundef %26, ptr noundef null)
  %28 = zext i16 %27 to i32
  store i32 %28, ptr %12, align 4
  %29 = icmp ugt i32 %28, 0
  br i1 %29, label %30, label %37

30:                                               ; preds = %21
  %31 = load i32, ptr %12, align 4
  %32 = load i32, ptr %11, align 4
  %33 = add i32 %32, %31
  store i32 %33, ptr %11, align 4
  %34 = load i32, ptr %12, align 4
  %35 = load i32, ptr %13, align 4
  %36 = sub i32 %35, %34
  store i32 %36, ptr %13, align 4
  br label %44

37:                                               ; preds = %21, %5
  %38 = load ptr, ptr %7, align 8
  %39 = load ptr, ptr %8, align 8
  %40 = load ptr, ptr %6, align 8
  %41 = load i32, ptr %11, align 4
  %42 = call ptr @get_gsm_a_msg_string(i32 noundef 3, i32 noundef 68)
  %43 = call ptr (ptr, ptr, ptr, ptr, i32, i32, ptr, ...) @proto_tree_add_expert_format(ptr noundef %38, ptr noundef %39, ptr noundef @ei_bssgp_missing_mandatory_element, ptr noundef %40, i32 noundef %41, i32 noundef 0, ptr noundef @.str.6, i32 noundef 31, ptr noundef %42, ptr noundef @.str.7)
  br label %44

44:                                               ; preds = %37, %30
  %45 = load ptr, ptr %6, align 8
  %46 = load ptr, ptr %7, align 8
  %47 = load ptr, ptr %8, align 8
  %48 = load i32, ptr %11, align 4
  %49 = load i32, ptr %13, align 4
  %50 = call zeroext i16 @elem_telv(ptr noundef %45, ptr noundef %46, ptr noundef %47, i8 noundef zeroext 7, i32 noundef 13, i32 noundef 7, i32 noundef %48, i32 noundef %49, ptr noundef null)
  %51 = zext i16 %50 to i32
  store i32 %51, ptr %12, align 4
  %52 = icmp ugt i32 %51, 0
  br i1 %52, label %53, label %60

53:                                               ; preds = %44
  %54 = load i32, ptr %12, align 4
  %55 = load i32, ptr %11, align 4
  %56 = add i32 %55, %54
  store i32 %56, ptr %11, align 4
  %57 = load i32, ptr %12, align 4
  %58 = load i32, ptr %13, align 4
  %59 = sub i32 %58, %57
  store i32 %59, ptr %13, align 4
  br label %67

60:                                               ; preds = %44
  %61 = load ptr, ptr %7, align 8
  %62 = load ptr, ptr %8, align 8
  %63 = load ptr, ptr %6, align 8
  %64 = load i32, ptr %11, align 4
  %65 = call ptr @get_gsm_a_msg_string(i32 noundef 13, i32 noundef 7)
  %66 = call ptr (ptr, ptr, ptr, ptr, i32, i32, ptr, ...) @proto_tree_add_expert_format(ptr noundef %61, ptr noundef %62, ptr noundef @ei_bssgp_missing_mandatory_element, ptr noundef %63, i32 noundef %64, i32 noundef 0, ptr noundef @.str.6, i32 noundef 7, ptr noundef %65, ptr noundef @.str.7)
  br label %67

67:                                               ; preds = %60, %53
  %68 = load i32, ptr %13, align 4
  %69 = icmp sle i32 %68, 0
  br i1 %69, label %70, label %71

70:                                               ; preds = %67
  store i32 1, ptr %14, align 4
  br label %163

71:                                               ; preds = %67
  %72 = load ptr, ptr %6, align 8
  %73 = load ptr, ptr %7, align 8
  %74 = load ptr, ptr %8, align 8
  %75 = load i32, ptr %11, align 4
  %76 = load i32, ptr %13, align 4
  %77 = call zeroext i16 @elem_telv(ptr noundef %72, ptr noundef %73, ptr noundef %74, i8 noundef zeroext 8, i32 noundef 13, i32 noundef 8, i32 noundef %75, i32 noundef %76, ptr noundef @.str.753)
  %78 = zext i16 %77 to i32
  store i32 %78, ptr %12, align 4
  %79 = icmp ugt i32 %78, 0
  br i1 %79, label %80, label %87

80:                                               ; preds = %71
  %81 = load i32, ptr %12, align 4
  %82 = load i32, ptr %11, align 4
  %83 = add i32 %82, %81
  store i32 %83, ptr %11, align 4
  %84 = load i32, ptr %12, align 4
  %85 = load i32, ptr %13, align 4
  %86 = sub i32 %85, %84
  store i32 %86, ptr %13, align 4
  br label %87

87:                                               ; preds = %80, %71
  %88 = load i32, ptr %13, align 4
  %89 = icmp sle i32 %88, 0
  br i1 %89, label %90, label %91

90:                                               ; preds = %87
  store i32 1, ptr %14, align 4
  br label %163

91:                                               ; preds = %87
  %92 = load ptr, ptr %6, align 8
  %93 = load ptr, ptr %7, align 8
  %94 = load ptr, ptr %8, align 8
  %95 = load i32, ptr %11, align 4
  %96 = load i32, ptr %13, align 4
  %97 = call zeroext i16 @elem_telv(ptr noundef %92, ptr noundef %93, ptr noundef %94, i8 noundef zeroext 8, i32 noundef 13, i32 noundef 8, i32 noundef %95, i32 noundef %96, ptr noundef @.str.754)
  %98 = zext i16 %97 to i32
  store i32 %98, ptr %12, align 4
  %99 = icmp ugt i32 %98, 0
  br i1 %99, label %100, label %107

100:                                              ; preds = %91
  %101 = load i32, ptr %12, align 4
  %102 = load i32, ptr %11, align 4
  %103 = add i32 %102, %101
  store i32 %103, ptr %11, align 4
  %104 = load i32, ptr %12, align 4
  %105 = load i32, ptr %13, align 4
  %106 = sub i32 %105, %104
  store i32 %106, ptr %13, align 4
  br label %107

107:                                              ; preds = %100, %91
  %108 = load i32, ptr %13, align 4
  %109 = icmp sle i32 %108, 0
  br i1 %109, label %110, label %111

110:                                              ; preds = %107
  store i32 1, ptr %14, align 4
  br label %163

111:                                              ; preds = %107
  %112 = load ptr, ptr %6, align 8
  %113 = load ptr, ptr %7, align 8
  %114 = load ptr, ptr %8, align 8
  %115 = load i32, ptr %11, align 4
  %116 = load i32, ptr %13, align 4
  %117 = call zeroext i16 @elem_telv(ptr noundef %112, ptr noundef %113, ptr noundef %114, i8 noundef zeroext 108, i32 noundef 13, i32 noundef 78, i32 noundef %115, i32 noundef %116, ptr noundef @.str.754)
  %118 = zext i16 %117 to i32
  store i32 %118, ptr %12, align 4
  %119 = icmp ugt i32 %118, 0
  br i1 %119, label %120, label %127

120:                                              ; preds = %111
  %121 = load i32, ptr %12, align 4
  %122 = load i32, ptr %11, align 4
  %123 = add i32 %122, %121
  store i32 %123, ptr %11, align 4
  %124 = load i32, ptr %12, align 4
  %125 = load i32, ptr %13, align 4
  %126 = sub i32 %125, %124
  store i32 %126, ptr %13, align 4
  br label %127

127:                                              ; preds = %120, %111
  %128 = load i32, ptr %13, align 4
  %129 = icmp sle i32 %128, 0
  br i1 %129, label %130, label %131

130:                                              ; preds = %127
  store i32 1, ptr %14, align 4
  br label %163

131:                                              ; preds = %127
  %132 = load ptr, ptr %6, align 8
  %133 = load ptr, ptr %7, align 8
  %134 = load ptr, ptr %8, align 8
  %135 = load i32, ptr %11, align 4
  %136 = load i32, ptr %13, align 4
  %137 = call zeroext i16 @elem_telv(ptr noundef %132, ptr noundef %133, ptr noundef %134, i8 noundef zeroext 127, i32 noundef 13, i32 noundef 93, i32 noundef %135, i32 noundef %136, ptr noundef @.str.754)
  %138 = zext i16 %137 to i32
  store i32 %138, ptr %12, align 4
  %139 = icmp ugt i32 %138, 0
  br i1 %139, label %140, label %147

140:                                              ; preds = %131
  %141 = load i32, ptr %12, align 4
  %142 = load i32, ptr %11, align 4
  %143 = add i32 %142, %141
  store i32 %143, ptr %11, align 4
  %144 = load i32, ptr %12, align 4
  %145 = load i32, ptr %13, align 4
  %146 = sub i32 %145, %144
  store i32 %146, ptr %13, align 4
  br label %147

147:                                              ; preds = %140, %131
  %148 = load i32, ptr %13, align 4
  %149 = icmp ugt i32 %148, 0
  br i1 %149, label %150, label %162

150:                                              ; preds = %147
  %151 = load ptr, ptr %7, align 8
  %152 = load ptr, ptr %8, align 8
  %153 = load ptr, ptr %6, align 8
  %154 = load i32, ptr %11, align 4
  %155 = load i32, ptr %13, align 4
  %156 = sub i32 %155, 0
  %157 = call ptr @proto_tree_add_expert(ptr noundef %151, ptr noundef %152, ptr noundef @ei_bssgp_extraneous_data, ptr noundef %153, i32 noundef %154, i32 noundef %156)
  %158 = load i32, ptr %13, align 4
  %159 = sub i32 %158, 0
  %160 = load i32, ptr %11, align 4
  %161 = add i32 %160, %159
  store i32 %161, ptr %11, align 4
  br label %162

162:                                              ; preds = %150, %147
  store i32 0, ptr %14, align 4
  br label %163

163:                                              ; preds = %162, %130, %110, %90, %70
  call void @llvm.lifetime.end.p0(i64 4, ptr %13) #4
  call void @llvm.lifetime.end.p0(i64 4, ptr %12) #4
  call void @llvm.lifetime.end.p0(i64 4, ptr %11) #4
  %164 = load i32, ptr %14, align 4
  switch i32 %164, label %166 [
    i32 0, label %165
    i32 1, label %165
  ]

165:                                              ; preds = %163, %163
  ret void

166:                                              ; preds = %163
  unreachable
}