; Function Attrs: null_pointer_is_valid sspstrong uwtable
define internal void @bssgp_ps_ho_cancel(ptr noundef %0, ptr noundef %1, ptr noundef initializes((384, 388)) %2, i32 noundef %3, i32 noundef %4) #1 {
  %6 = getelementptr inbounds nuw i8, ptr %2, i64 384
  store i32 0, ptr %6, align 8
  %7 = icmp sgt i32 %4, 0
  br i1 %7, label %8, label %14

8:                                                ; preds = %5
  %9 = tail call zeroext i16 @elem_telv(ptr noundef %0, ptr noundef %1, ptr noundef %2, i8 noundef zeroext 31, i32 noundef 3, i32 noundef 68, i32 noundef %3, i32 noundef %4, ptr noundef null)
  %.not = icmp eq i16 %9, 0
  br i1 %.not, label %14, label %10

10:                                               ; preds = %8
  %11 = zext i16 %9 to i32
  %12 = add i32 %3, %11
  %13 = sub nsw i32 %4, %11
  br label %17

14:                                               ; preds = %8, %5
  %15 = tail call ptr @get_gsm_a_msg_string(i32 noundef 3, i32 noundef 68)
  %16 = tail call ptr (ptr, ptr, ptr, ptr, i32, i32, ptr, ...) @proto_tree_add_expert_format(ptr noundef %1, ptr noundef %2, ptr noundef nonnull @ei_bssgp_missing_mandatory_element, ptr noundef %0, i32 noundef %3, i32 noundef 0, ptr noundef nonnull @.str.6, i32 noundef 31, ptr noundef %15, ptr noundef nonnull @.str.7)
  br label %17

17:                                               ; preds = %14, %10
  %.077 = phi i32 [ %12, %10 ], [ %3, %14 ]
  %.0 = phi i32 [ %13, %10 ], [ %4, %14 ]
  %18 = tail call zeroext i16 @elem_telv(ptr noundef %0, ptr noundef %1, ptr noundef %2, i8 noundef zeroext 7, i32 noundef 13, i32 noundef 7, i32 noundef %.077, i32 noundef %.0, ptr noundef null)
  %.not90 = icmp eq i16 %18, 0
  br i1 %.not90, label %23, label %19

19:                                               ; preds = %17
  %20 = zext i16 %18 to i32
  %21 = add i32 %.077, %20
  %22 = sub i32 %.0, %20
  br label %26

23:                                               ; preds = %17
  %24 = tail call ptr @get_gsm_a_msg_string(i32 noundef 13, i32 noundef 7)
  %25 = tail call ptr (ptr, ptr, ptr, ptr, i32, i32, ptr, ...) @proto_tree_add_expert_format(ptr noundef %1, ptr noundef %2, ptr noundef nonnull @ei_bssgp_missing_mandatory_element, ptr noundef %0, i32 noundef %.077, i32 noundef 0, ptr noundef nonnull @.str.6, i32 noundef 7, ptr noundef %24, ptr noundef nonnull @.str.7)
  br label %26

26:                                               ; preds = %23, %19
  %.178 = phi i32 [ %21, %19 ], [ %.077, %23 ]
  %.1 = phi i32 [ %22, %19 ], [ %.0, %23 ]
  %27 = icmp slt i32 %.1, 1
  br i1 %27, label %53, label %28

28:                                               ; preds = %26
  %29 = tail call zeroext i16 @elem_telv(ptr noundef %0, ptr noundef %1, ptr noundef %2, i8 noundef zeroext 8, i32 noundef 13, i32 noundef 8, i32 noundef %.178, i32 noundef %.1, ptr noundef nonnull @.str.753)
  %30 = zext i16 %29 to i32
  %31 = sub nsw i32 %.1, %30
  %32 = icmp slt i32 %31, 1
  br i1 %32, label %53, label %33

33:                                               ; preds = %28
  %34 = add i32 %.178, %30
  %35 = tail call zeroext i16 @elem_telv(ptr noundef %0, ptr noundef %1, ptr noundef %2, i8 noundef zeroext 8, i32 noundef 13, i32 noundef 8, i32 noundef %34, i32 noundef %31, ptr noundef nonnull @.str.754)
  %36 = zext i16 %35 to i32
  %37 = sub nsw i32 %31, %36
  %38 = icmp slt i32 %37, 1
  br i1 %38, label %53, label %39

39:                                               ; preds = %33
  %40 = add i32 %34, %36
  %41 = tail call zeroext i16 @elem_telv(ptr noundef %0, ptr noundef %1, ptr noundef %2, i8 noundef zeroext 108, i32 noundef 13, i32 noundef 78, i32 noundef %40, i32 noundef %37, ptr noundef nonnull @.str.754)
  %42 = zext i16 %41 to i32
  %43 = sub nsw i32 %37, %42
  %44 = icmp slt i32 %43, 1
  br i1 %44, label %53, label %45

45:                                               ; preds = %39
  %46 = add i32 %40, %42
  %47 = tail call zeroext i16 @elem_telv(ptr noundef %0, ptr noundef %1, ptr noundef %2, i8 noundef zeroext 127, i32 noundef 13, i32 noundef 93, i32 noundef %46, i32 noundef %43, ptr noundef nonnull @.str.754)
  %48 = zext i16 %47 to i32
  %.not95 = icmp eq i32 %43, %48
  br i1 %.not95, label %53, label %49

49:                                               ; preds = %45
  %50 = sub nsw i32 %43, %48
  %51 = add i32 %46, %48
  %52 = tail call ptr @proto_tree_add_expert(ptr noundef %1, ptr noundef %2, ptr noundef nonnull @ei_bssgp_extraneous_data, ptr noundef %0, i32 noundef %51, i32 noundef %50)
  br label %53

53:                                               ; preds = %45, %49, %39, %33, %28, %26
  ret void
}